target datalayout = "e-m:e-p270:32:32-p271:32:32-p272:64:64-i64:64-i128:128-f80:128-n8:16:32:64-S128"
target triple = "x86_64-pc-linux-gnu"

%class.TableRateStatistics = type { i64, i64, i64, double, i64, i64, i64, i64 }
%class.TableStatistics = type { i64, i64, i64, i64, float, float, float, i64, i64, i64, i64, i64, float, float }
%class.AbsSeq = type { ptr, i32, double, double, double, double, double }
%class.NumberSeq = type { %class.AbsSeq, double, double }

@_ZTV9NumberSeq = external unnamed_addr constant { [8 x ptr] }, align 8
@_ZTV6AbsSeq = external unnamed_addr constant { [8 x ptr] }, align 8

; Function Attrs: mustprogress nounwind uwtable
define linkonce_odr hidden noundef double @_ZNK9NumberSeq7maximumEv(ptr noundef nonnull align 8 dereferenceable(72) %0) unnamed_addr #1 comdat align 2 {
  %2 = alloca ptr, align 8
  store ptr %0, ptr %2, align 8
  %3 = load ptr, ptr %2, align 8
  %4 = getelementptr inbounds %class.NumberSeq, ptr %3, i32 0, i32 2
  %5 = load double, ptr %4, align 8
  ret double %5
}

; Function Attrs: mustprogress nounwind uwtable
define linkonce_odr hidden noundef double @_ZNK6AbsSeq3sumEv(ptr noundef nonnull align 8 dereferenceable(56) %0) #1 comdat align 2 {
  %2 = alloca ptr, align 8
  store ptr %0, ptr %2, align 8
  %3 = load ptr, ptr %2, align 8
  %4 = getelementptr inbounds %class.AbsSeq, ptr %3, i32 0, i32 2
  %5 = load double, ptr %4, align 8
  ret double %5
}

; Function Attrs: mustprogress nounwind uwtable
define linkonce_odr hidden noundef i32 @_ZNK6AbsSeq3numEv(ptr noundef nonnull align 8 dereferenceable(56) %0) #1 comdat align 2 {
  %2 = alloca ptr, align 8
  store ptr %0, ptr %2, align 8
  %3 = load ptr, ptr %2, align 8
  %4 = getelementptr inbounds %class.AbsSeq, ptr %3, i32 0, i32 1
  %5 = load i32, ptr %4, align 8
  ret i32 %5
}

; Function Attrs: mustprogress nounwind uwtable
define linkonce_odr hidden void @_ZN6AbsSeqC2ERKS_(ptr noundef nonnull align 8 dereferenceable(56) %0, ptr noundef nonnull align 8 dereferenceable(56) %1) unnamed_addr #1 comdat align 2 {
  %3 = alloca ptr, align 8
  %4 = alloca ptr, align 8
  store ptr %0, ptr %3, align 8
  store ptr %1, ptr %4, align 8
  %5 = load ptr, ptr %3, align 8
  store ptr getelementptr inbounds inrange(-16, 48) ({ [8 x ptr] }, ptr @_ZTV6AbsSeq, i32 0, i32 0, i32 2), ptr %5, align 8
  %6 = getelementptr inbounds %class.AbsSeq, ptr %5, i32 0, i32 1
  %7 = load ptr, ptr %4, align 8
  %8 = getelementptr inbounds %class.AbsSeq, ptr %7, i32 0, i32 1
  call void @llvm.memcpy.p0.p0.i64(ptr align 8 %6, ptr align 8 %8, i64 48, i1 false)
  ret void
}

; Function Attrs: mustprogress nounwind uwtable
define hidden noundef float @_ZN19TableRateStatistics15get_remove_rateEv(ptr noundef nonnull align 8 dereferenceable(64) %0) #1 align 2 {
  %2 = alloca ptr, align 8
  store ptr %0, ptr %2, align 8
  %3 = load ptr, ptr %2, align 8
  %4 = getelementptr inbounds %class.TableRateStatistics, ptr %3, i32 0, i32 6
  %5 = load i64, ptr %4, align 8
  %6 = getelementptr inbounds %class.TableRateStatistics, ptr %3, i32 0, i32 7
  %7 = load i64, ptr %6, align 8
  %8 = sub i64 %5, %7
  %9 = uitofp i64 %8 to float
  %10 = getelementptr inbounds %class.TableRateStatistics, ptr %3, i32 0, i32 3
  %11 = load double, ptr %10, align 8
  %12 = fptrunc double %11 to float
  %13 = fdiv float %9, %12
  ret float %13
}

; Function Attrs: mustprogress nounwind uwtable
define hidden noundef float @_ZN19TableRateStatistics12get_add_rateEv(ptr noundef nonnull align 8 dereferenceable(64) %0) #1 align 2 {
  %2 = alloca ptr, align 8
  store ptr %0, ptr %2, align 8
  %3 = load ptr, ptr %2, align 8
  %4 = getelementptr inbounds %class.TableRateStatistics, ptr %3, i32 0, i32 4
  %5 = load i64, ptr %4, align 8
  %6 = uitofp i64 %5 to double
  %7 = getelementptr inbounds %class.TableRateStatistics, ptr %3, i32 0, i32 5
  %8 = load i64, ptr %7, align 8
  %9 = uitofp i64 %8 to double
  %10 = fsub double %6, %9
  %11 = getelementptr inbounds %class.TableRateStatistics, ptr %3, i32 0, i32 3
  %12 = load double, ptr %11, align 8
  %13 = fdiv double %10, %12
  %14 = fptrunc double %13 to float
  ret float %14
}

; Function Attrs: mustprogress nounwind uwtable
define hidden void @_ZN19TableRateStatistics5stampEv(ptr noundef nonnull align 8 dereferenceable(64) %0) #1 align 2 {
  %2 = alloca ptr, align 8
  %3 = alloca i64, align 8
  %4 = alloca i64, align 8
  store ptr %0, ptr %2, align 8
  %5 = load ptr, ptr %2, align 8
  %6 = call noundef i64 @_ZN2os13javaTimeNanosEv()
  store i64 %6, ptr %3, align 8
  %7 = getelementptr inbounds %class.TableRateStatistics, ptr %5, i32 0, i32 4
  %8 = load i64, ptr %7, align 8
  %9 = getelementptr inbounds %class.TableRateStatistics, ptr %5, i32 0, i32 5
  store i64 %8, ptr %9, align 8
  %10 = getelementptr inbounds %class.TableRateStatistics, ptr %5, i32 0, i32 6
  %11 = load i64, ptr %10, align 8
  %12 = getelementptr inbounds %class.TableRateStatistics, ptr %5, i32 0, i32 7
  store i64 %11, ptr %12, align 8
  %13 = getelementptr inbounds %class.TableRateStatistics, ptr %5, i32 0, i32 0
  %14 = load volatile i64, ptr %13, align 8
  %15 = getelementptr inbounds %class.TableRateStatistics, ptr %5, i32 0, i32 4
  store i64 %14, ptr %15, align 8
  %16 = getelementptr inbounds %class.TableRateStatistics, ptr %5, i32 0, i32 1
  %17 = load volatile i64, ptr %16, align 8
  %18 = getelementptr inbounds %class.TableRateStatistics, ptr %5, i32 0, i32 6
  store i64 %17, ptr %18, align 8
  %19 = getelementptr inbounds %class.TableRateStatistics, ptr %5, i32 0, i32 2
  %20 = load i64, ptr %19, align 8
  %21 = icmp eq i64 %20, 0
  br i1 %21, label %22, label %26

22:                                               ; preds = %1
  %23 = load i64, ptr %3, align 8
  %24 = sub nsw i64 %23, 1000000000
  %25 = getelementptr inbounds %class.TableRateStatistics, ptr %5, i32 0, i32 2
  store i64 %24, ptr %25, align 8
  br label %26

26:                                               ; preds = %22, %1
  %27 = load i64, ptr %3, align 8
  %28 = getelementptr inbounds %class.TableRateStatistics, ptr %5, i32 0, i32 2
  %29 = load i64, ptr %28, align 8
  %30 = sub nsw i64 %27, %29
  store i64 %30, ptr %4, align 8
  %31 = load i64, ptr %4, align 8
  %32 = sitofp i64 %31 to float
  %33 = fpext float %32 to double
  %34 = fdiv double %33, 1.000000e+09
  %35 = getelementptr inbounds %class.TableRateStatistics, ptr %5, i32 0, i32 3
  store double %34, ptr %35, align 8
  %36 = load i64, ptr %3, align 8
  %37 = getelementptr inbounds %class.TableRateStatistics, ptr %5, i32 0, i32 2
  store i64 %36, ptr %37, align 8
  ret void
}

; Function Attrs: mustprogress nounwind uwtable
define hidden void @_ZN15TableStatisticsC2E9NumberSeqmmm(ptr noundef nonnull align 8 dereferenceable(96) %0, ptr noundef %1, i64 noundef %2, i64 noundef %3, i64 noundef %4) unnamed_addr #1 align 2 {
  %6 = alloca ptr, align 8
  %7 = alloca ptr, align 8
  %8 = alloca i64, align 8
  %9 = alloca i64, align 8
  %10 = alloca i64, align 8
  store ptr %0, ptr %6, align 8
  store ptr %1, ptr %7, align 8
  store i64 %2, ptr %8, align 8
  store i64 %3, ptr %9, align 8
  store i64 %4, ptr %10, align 8
  %11 = load ptr, ptr %6, align 8
  %12 = getelementptr inbounds %class.TableStatistics, ptr %11, i32 0, i32 0
  %13 = load i64, ptr %8, align 8
  store i64 %13, ptr %12, align 8
  %14 = getelementptr inbounds %class.TableStatistics, ptr %11, i32 0, i32 1
  store i64 0, ptr %14, align 8
  %15 = getelementptr inbounds %class.TableStatistics, ptr %11, i32 0, i32 2
  store i64 0, ptr %15, align 8
  %16 = getelementptr inbounds %class.TableStatistics, ptr %11, i32 0, i32 3
  store i64 0, ptr %16, align 8
  %17 = getelementptr inbounds %class.TableStatistics, ptr %11, i32 0, i32 4
  store float 0.000000e+00, ptr %17, align 8
  %18 = getelementptr inbounds %class.TableStatistics, ptr %11, i32 0, i32 5
  store float 0.000000e+00, ptr %18, align 4
  %19 = getelementptr inbounds %class.TableStatistics, ptr %11, i32 0, i32 6
  store float 0.000000e+00, ptr %19, align 8
  %20 = getelementptr inbounds %class.TableStatistics, ptr %11, i32 0, i32 7
  store i64 0, ptr %20, align 8
  %21 = getelementptr inbounds %class.TableStatistics, ptr %11, i32 0, i32 8
  store i64 0, ptr %21, align 8
  %22 = getelementptr inbounds %class.TableStatistics, ptr %11, i32 0, i32 9
  store i64 0, ptr %22, align 8
  %23 = getelementptr inbounds %class.TableStatistics, ptr %11, i32 0, i32 10
  store i64 0, ptr %23, align 8
  %24 = getelementptr inbounds %class.TableStatistics, ptr %11, i32 0, i32 11
  store i64 0, ptr %24, align 8
  %25 = getelementptr inbounds %class.TableStatistics, ptr %11, i32 0, i32 12
  store float 0.000000e+00, ptr %25, align 8
  %26 = getelementptr inbounds %class.TableStatistics, ptr %11, i32 0, i32 13
  store float 0.000000e+00, ptr %26, align 4
  %27 = call noundef i32 @_ZNK6AbsSeq3numEv(ptr noundef nonnull align 8 dereferenceable(56) %1)
  %28 = sext i32 %27 to i64
  %29 = getelementptr inbounds %class.TableStatistics, ptr %11, i32 0, i32 1
  store i64 %28, ptr %29, align 8
  %30 = call noundef double @_ZNK6AbsSeq3sumEv(ptr noundef nonnull align 8 dereferenceable(56) %1)
  %31 = fptoui double %30 to i64
  %32 = getelementptr inbounds %class.TableStatistics, ptr %11, i32 0, i32 2
  store i64 %31, ptr %32, align 8
  %33 = call noundef double @_ZNK9NumberSeq7maximumEv(ptr noundef nonnull align 8 dereferenceable(72) %1)
  %34 = fptoui double %33 to i64
  %35 = getelementptr inbounds %class.TableStatistics, ptr %11, i32 0, i32 3
  store i64 %34, ptr %35, align 8
  %36 = call noundef double @_ZNK6AbsSeq3avgEv(ptr noundef nonnull align 8 dereferenceable(56) %1)
  %37 = fptrunc double %36 to float
  %38 = getelementptr inbounds %class.TableStatistics, ptr %11, i32 0, i32 4
  store float %37, ptr %38, align 8
  %39 = call noundef double @_ZNK6AbsSeq8varianceEv(ptr noundef nonnull align 8 dereferenceable(56) %1)
  %40 = fptrunc double %39 to float
  %41 = getelementptr inbounds %class.TableStatistics, ptr %11, i32 0, i32 5
  store float %40, ptr %41, align 4
  %42 = call noundef double @_ZNK6AbsSeq2sdEv(ptr noundef nonnull align 8 dereferenceable(56) %1)
  %43 = fptrunc double %42 to float
  %44 = getelementptr inbounds %class.TableStatistics, ptr %11, i32 0, i32 6
  store float %43, ptr %44, align 8
  %45 = getelementptr inbounds %class.TableStatistics, ptr %11, i32 0, i32 1
  %46 = load i64, ptr %45, align 8
  %47 = load i64, ptr %9, align 8
  %48 = mul i64 %46, %47
  %49 = getelementptr inbounds %class.TableStatistics, ptr %11, i32 0, i32 7
  store i64 %48, ptr %49, align 8
  %50 = getelementptr inbounds %class.TableStatistics, ptr %11, i32 0, i32 2
  %51 = load i64, ptr %50, align 8
  %52 = load i64, ptr %10, align 8
  %53 = mul i64 %51, %52
  %54 = getelementptr inbounds %class.TableStatistics, ptr %11, i32 0, i32 8
  store i64 %53, ptr %54, align 8
  %55 = getelementptr inbounds %class.TableStatistics, ptr %11, i32 0, i32 0
  %56 = load i64, ptr %55, align 8
  %57 = getelementptr inbounds %class.TableStatistics, ptr %11, i32 0, i32 7
  %58 = load i64, ptr %57, align 8
  %59 = add i64 %56, %58
  %60 = getelementptr inbounds %class.TableStatistics, ptr %11, i32 0, i32 8
  %61 = load i64, ptr %60, align 8
  %62 = add i64 %59, %61
  %63 = getelementptr inbounds %class.TableStatistics, ptr %11, i32 0, i32 9
  store i64 %62, ptr %63, align 8
  %64 = getelementptr inbounds %class.TableStatistics, ptr %11, i32 0, i32 1
  %65 = load i64, ptr %64, align 8
  %66 = icmp ule i64 %65, 0
  br i1 %66, label %67, label %68

67:                                               ; preds = %5
  br label %74

68:                                               ; preds = %5
  %69 = getelementptr inbounds %class.TableStatistics, ptr %11, i32 0, i32 7
  %70 = load i64, ptr %69, align 8
  %71 = getelementptr inbounds %class.TableStatistics, ptr %11, i32 0, i32 1
  %72 = load i64, ptr %71, align 8
  %73 = udiv i64 %70, %72
  br label %74

74:                                               ; preds = %68, %67
  %75 = phi i64 [ 0, %67 ], [ %73, %68 ]
  %76 = getelementptr inbounds %class.TableStatistics, ptr %11, i32 0, i32 10
  store i64 %75, ptr %76, align 8
  %77 = getelementptr inbounds %class.TableStatistics, ptr %11, i32 0, i32 2
  %78 = load i64, ptr %77, align 8
  %79 = icmp ule i64 %78, 0
  br i1 %79, label %80, label %81

80:                                               ; preds = %74
  br label %87

81:                                               ; preds = %74
  %82 = getelementptr inbounds %class.TableStatistics, ptr %11, i32 0, i32 8
  %83 = load i64, ptr %82, align 8
  %84 = getelementptr inbounds %class.TableStatistics, ptr %11, i32 0, i32 2
  %85 = load i64, ptr %84, align 8
  %86 = udiv i64 %83, %85
  br label %87

87:                                               ; preds = %81, %80
  %88 = phi i64 [ 0, %80 ], [ %86, %81 ]
  %89 = getelementptr inbounds %class.TableStatistics, ptr %11, i32 0, i32 11
  store i64 %88, ptr %89, align 8
  ret void
}

; Function Attrs: mustprogress nounwind uwtable
define linkonce_odr hidden void @_ZN9NumberSeqC2ERKS_(ptr noundef nonnull align 8 dereferenceable(72) %0, ptr noundef nonnull align 8 dereferenceable(72) %1) unnamed_addr #1 comdat align 2 {
  %3 = alloca ptr, align 8
  %4 = alloca ptr, align 8
  store ptr %0, ptr %3, align 8
  store ptr %1, ptr %4, align 8
  %5 = load ptr, ptr %3, align 8
  %6 = load ptr, ptr %4, align 8
  call void @_ZN6AbsSeqC2ERKS_(ptr noundef nonnull align 8 dereferenceable(56) %5, ptr noundef nonnull align 8 dereferenceable(56) %6) #4
  store ptr getelementptr inbounds inrange(-16, 48) ({ [8 x ptr] }, ptr @_ZTV9NumberSeq, i32 0, i32 0, i32 2), ptr %5, align 8
  %7 = getelementptr inbounds %class.NumberSeq, ptr %5, i32 0, i32 1
  %8 = load ptr, ptr %4, align 8
  %9 = getelementptr inbounds %class.NumberSeq, ptr %8, i32 0, i32 1
  call void @llvm.memcpy.p0.p0.i64(ptr align 8 %7, ptr align 8 %9, i64 16, i1 false)
  ret void
}

; Function Attrs: mustprogress nounwind uwtable
define hidden void @_ZN15TableStatisticsC2ER19TableRateStatistics9NumberSeqmmm(ptr noundef nonnull align 8 dereferenceable(96) %0, ptr noundef nonnull align 8 dereferenceable(64) %1, ptr noundef %2, i64 noundef %3, i64 noundef %4, i64 noundef %5) unnamed_addr #1 align 2 {
  %7 = alloca ptr, align 8
  %8 = alloca ptr, align 8
  %9 = alloca ptr, align 8
  %10 = alloca i64, align 8
  %11 = alloca i64, align 8
  %12 = alloca i64, align 8
  %13 = alloca %class.NumberSeq, align 8
  store ptr %0, ptr %7, align 8
  store ptr %1, ptr %8, align 8
  store ptr %2, ptr %9, align 8
  store i64 %3, ptr %10, align 8
  store i64 %4, ptr %11, align 8
  store i64 %5, ptr %12, align 8
  %14 = load ptr, ptr %7, align 8
  call void @_ZN9NumberSeqC2ERKS_(ptr noundef nonnull align 8 dereferenceable(72) %13, ptr noundef nonnull align 8 dereferenceable(72) %2) #4
  %15 = load i64, ptr %10, align 8
  %16 = load i64, ptr %11, align 8
  %17 = load i64, ptr %12, align 8
  call void @_ZN15TableStatisticsC2E9NumberSeqmmm(ptr noundef nonnull align 8 dereferenceable(96) %14, ptr noundef %13, i64 noundef %15, i64 noundef %16, i64 noundef %17)
  %18 = call noundef zeroext i1 @_ZN3Jfr12is_recordingEv()
  br i1 %18, label %19, label %27

19:                                               ; preds = %6
  %20 = load ptr, ptr %8, align 8
  call void @_ZN19TableRateStatistics5stampEv(ptr noundef nonnull align 8 dereferenceable(64) %20)
  %21 = load ptr, ptr %8, align 8
  %22 = call noundef float @_ZN19TableRateStatistics12get_add_rateEv(ptr noundef nonnull align 8 dereferenceable(64) %21)
  %23 = getelementptr inbounds %class.TableStatistics, ptr %14, i32 0, i32 12
  store float %22, ptr %23, align 8
  %24 = load ptr, ptr %8, align 8
  %25 = call noundef float @_ZN19TableRateStatistics15get_remove_rateEv(ptr noundef nonnull align 8 dereferenceable(64) %24)
  %26 = getelementptr inbounds %class.TableStatistics, ptr %14, i32 0, i32 13
  store float %25, ptr %26, align 4
  br label %27

27:                                               ; preds = %19, %6
  ret void
}