; Function Attrs: mustprogress nounwind uwtable
define hidden void @_ZN15TableStatisticsC2ER19TableRateStatistics9NumberSeqmmm(ptr nocapture noundef nonnull align 8 dereferenceable(96) %0, ptr noundef nonnull align 8 dereferenceable(64) %1, ptr nocapture noundef readonly %2, i64 noundef %3, i64 noundef %4, i64 noundef %5) unnamed_addr #2 align 2 {
  %7 = alloca %class.NumberSeq, align 8
  %8 = getelementptr inbounds i8, ptr %7, i64 8
  %9 = getelementptr inbounds i8, ptr %2, i64 8
  call void @llvm.memcpy.p0.p0.i64(ptr noundef nonnull align 8 dereferenceable(48) %8, ptr noundef nonnull align 8 dereferenceable(48) %9, i64 48, i1 false)
  store ptr getelementptr inbounds inrange(-16, 48) (i8, ptr @_ZTV9NumberSeq, i64 16), ptr %7, align 8
  %10 = getelementptr inbounds i8, ptr %7, i64 56
  %11 = getelementptr inbounds i8, ptr %2, i64 56
  call void @llvm.memcpy.p0.p0.i64(ptr noundef nonnull align 8 dereferenceable(16) %10, ptr noundef nonnull align 8 dereferenceable(16) %11, i64 16, i1 false)
  store i64 %3, ptr %0, align 8
  %12 = getelementptr inbounds i8, ptr %0, i64 8
  %13 = getelementptr inbounds i8, ptr %0, i64 16
  %14 = getelementptr inbounds i8, ptr %0, i64 24
  %15 = getelementptr inbounds i8, ptr %0, i64 32
  %16 = getelementptr inbounds i8, ptr %0, i64 36
  %17 = getelementptr inbounds i8, ptr %0, i64 40
  %18 = getelementptr inbounds i8, ptr %0, i64 48
  %19 = getelementptr inbounds i8, ptr %0, i64 56
  %20 = getelementptr inbounds i8, ptr %0, i64 64
  %21 = getelementptr inbounds i8, ptr %0, i64 72
  %22 = getelementptr inbounds i8, ptr %0, i64 32
  tail call void @llvm.memset.p0.i64(ptr noundef nonnull align 8 dereferenceable(36) %22, i8 0, i64 12, i1 false)
  tail call void @llvm.memset.p0.i64(ptr noundef nonnull align 8 dereferenceable(48) %18, i8 0, i64 48, i1 false)
  %23 = load i32, ptr %8, align 8
  %24 = sext i32 %23 to i64
  store i64 %24, ptr %12, align 8
  %25 = getelementptr inbounds i8, ptr %7, i64 16
  %26 = load double, ptr %25, align 8
  %27 = fptoui double %26 to i64
  store i64 %27, ptr %13, align 8
  %28 = getelementptr inbounds i8, ptr %7, i64 64
  %29 = load double, ptr %28, align 8
  %30 = fptoui double %29 to i64
  store i64 %30, ptr %14, align 8
  %31 = call noundef double @_ZNK6AbsSeq3avgEv(ptr noundef nonnull align 8 dereferenceable(56) %7) #8
  %32 = fptrunc double %31 to float
  store float %32, ptr %15, align 8
  %33 = call noundef double @_ZNK6AbsSeq8varianceEv(ptr noundef nonnull align 8 dereferenceable(56) %7) #8
  %34 = fptrunc double %33 to float
  store float %34, ptr %16, align 4
  %35 = call noundef double @_ZNK6AbsSeq2sdEv(ptr noundef nonnull align 8 dereferenceable(56) %7) #8
  %36 = fptrunc double %35 to float
  store float %36, ptr %17, align 8
  %37 = load i64, ptr %12, align 8
  %38 = mul i64 %37, %4
  store i64 %38, ptr %18, align 8
  %39 = load i64, ptr %13, align 8
  %40 = mul i64 %39, %5
  store i64 %40, ptr %19, align 8
  %41 = load i64, ptr %0, align 8
  %42 = add i64 %40, %38
  %43 = add i64 %42, %41
  store i64 %43, ptr %20, align 8
  %44 = icmp eq i64 %37, 0
  br i1 %44, label %47, label %45

45:                                               ; preds = %6
  %46 = udiv i64 %38, %37
  br label %47

47:                                               ; preds = %45, %6
  %48 = phi i64 [ %46, %45 ], [ 0, %6 ]
  store i64 %48, ptr %21, align 8
  %49 = icmp eq i64 %39, 0
  br i1 %49, label %_ZN15TableStatisticsC2E9NumberSeqmmm.exit, label %50

50:                                               ; preds = %47
  %51 = udiv i64 %40, %39
  br label %_ZN15TableStatisticsC2E9NumberSeqmmm.exit

_ZN15TableStatisticsC2E9NumberSeqmmm.exit:        ; preds = %47, %50
  %52 = phi i64 [ %51, %50 ], [ 0, %47 ]
  %53 = getelementptr inbounds i8, ptr %0, i64 80
  store i64 %52, ptr %53, align 8
  %54 = call noundef zeroext i1 @_ZN3Jfr12is_recordingEv() #8
  br i1 %54, label %55, label %89

55:                                               ; preds = %_ZN15TableStatisticsC2E9NumberSeqmmm.exit
  %56 = call noundef i64 @_ZN2os13javaTimeNanosEv() #8
  %57 = getelementptr inbounds i8, ptr %1, i64 32
  %58 = load i64, ptr %57, align 8
  %59 = getelementptr inbounds i8, ptr %1, i64 40
  store i64 %58, ptr %59, align 8
  %60 = getelementptr inbounds i8, ptr %1, i64 48
  %61 = load i64, ptr %60, align 8
  %62 = getelementptr inbounds i8, ptr %1, i64 56
  store i64 %61, ptr %62, align 8
  %63 = load volatile i64, ptr %1, align 8
  store i64 %63, ptr %57, align 8
  %64 = getelementptr inbounds i8, ptr %1, i64 8
  %65 = load volatile i64, ptr %64, align 8
  store i64 %65, ptr %60, align 8
  %66 = getelementptr inbounds i8, ptr %1, i64 16
  %67 = load i64, ptr %66, align 8
  %68 = icmp eq i64 %67, 0
  %69 = add nsw i64 %56, -1000000000
  %spec.select.i = select i1 %68, i64 %69, i64 %67
  %70 = sub nsw i64 %56, %spec.select.i
  %71 = sitofp i64 %70 to float
  %72 = fpext float %71 to double
  %73 = fdiv double %72, 1.000000e+09
  %74 = getelementptr inbounds i8, ptr %1, i64 24
  store double %73, ptr %74, align 8
  store i64 %56, ptr %66, align 8
  %75 = uitofp i64 %63 to double
  %76 = uitofp i64 %58 to double
  %77 = fsub double %75, %76
  %78 = fdiv double %77, %73
  %79 = fptrunc double %78 to float
  %80 = getelementptr inbounds i8, ptr %0, i64 88
  store float %79, ptr %80, align 8
  %81 = load i64, ptr %60, align 8
  %82 = load i64, ptr %62, align 8
  %83 = sub i64 %81, %82
  %84 = uitofp i64 %83 to float
  %85 = load double, ptr %74, align 8
  %86 = fptrunc double %85 to float
  %87 = fdiv float %84, %86
  %88 = getelementptr inbounds i8, ptr %0, i64 92
  store float %87, ptr %88, align 4
  br label %89

89:                                               ; preds = %55, %_ZN15TableStatisticsC2E9NumberSeqmmm.exit
  ret void
}